target datalayout = "e-m:e-p270:32:32-p271:32:32-p272:64:64-i64:64-i128:128-f80:128-n8:16:32:64-S128"
target triple = "x86_64-pc-linux-gnu"

; Function Attrs: alwaysinline nounwind willreturn memory(none) uwtable
define internal i32 @av_clip_c(i32 noundef %0, i32 noundef %1, i32 noundef %2) #8 {
  %4 = alloca i32, align 4
  %5 = alloca i32, align 4
  %6 = alloca i32, align 4
  %7 = alloca i32, align 4
  store i32 %0, ptr %5, align 4, !tbaa !49
  store i32 %1, ptr %6, align 4, !tbaa !49
  store i32 %2, ptr %7, align 4, !tbaa !49
  %8 = load i32, ptr %5, align 4, !tbaa !49
  %9 = load i32, ptr %6, align 4, !tbaa !49
  %10 = icmp slt i32 %8, %9
  br i1 %10, label %11, label %13

11:                                               ; preds = %3
  %12 = load i32, ptr %6, align 4, !tbaa !49
  store i32 %12, ptr %4, align 4
  br label %21

13:                                               ; preds = %3
  %14 = load i32, ptr %5, align 4, !tbaa !49
  %15 = load i32, ptr %7, align 4, !tbaa !49
  %16 = icmp sgt i32 %14, %15
  br i1 %16, label %17, label %19

17:                                               ; preds = %13
  %18 = load i32, ptr %7, align 4, !tbaa !49
  store i32 %18, ptr %4, align 4
  br label %21

19:                                               ; preds = %13
  %20 = load i32, ptr %5, align 4, !tbaa !49
  store i32 %20, ptr %4, align 4
  br label %21

21:                                               ; preds = %19, %17, %11
  %22 = load i32, ptr %4, align 4
  ret i32 %22
}

; Function Attrs: nounwind uwtable
define internal void @draw_sample_p2p_rgba_scale(ptr noundef %0, i32 noundef %1, i32 noundef %2, ptr noundef %3, ptr noundef %4, i32 noundef %5) #1 {
  %7 = alloca ptr, align 8
  %8 = alloca i32, align 4
  %9 = alloca i32, align 4
  %10 = alloca ptr, align 8
  %11 = alloca ptr, align 8
  %12 = alloca i32, align 4
  %13 = alloca i32, align 4
  %14 = alloca ptr, align 8
  %15 = alloca i32, align 4
  %16 = alloca i16, align 2
  %17 = alloca i32, align 4
  store ptr %0, ptr %7, align 8, !tbaa !69
  store i32 %1, ptr %8, align 4, !tbaa !49
  store i32 %2, ptr %9, align 4, !tbaa !49
  store ptr %3, ptr %10, align 8, !tbaa !92
  store ptr %4, ptr %11, align 8, !tbaa !69
  store i32 %5, ptr %12, align 4, !tbaa !49
  %18 = load i32, ptr %12, align 4, !tbaa !49
  %19 = icmp sge i32 %18, 0
  br i1 %19, label %20, label %180

20:                                               ; preds = %6
  %21 = load i32, ptr %12, align 4, !tbaa !49
  %22 = load i32, ptr %8, align 4, !tbaa !49
  %23 = icmp slt i32 %21, %22
  br i1 %23, label %24, label %180

24:                                               ; preds = %20
  %25 = load ptr, ptr %11, align 8, !tbaa !69
  %26 = getelementptr inbounds i8, ptr %25, i64 0
  %27 = load i8, ptr %26, align 1, !tbaa !89
  %28 = zext i8 %27 to i32
  %29 = load ptr, ptr %7, align 8, !tbaa !69
  %30 = load i32, ptr %12, align 4, !tbaa !49
  %31 = load i32, ptr %9, align 4, !tbaa !49
  %32 = mul nsw i32 %30, %31
  %33 = add nsw i32 %32, 0
  %34 = sext i32 %33 to i64
  %35 = getelementptr inbounds i8, ptr %29, i64 %34
  %36 = load i8, ptr %35, align 1, !tbaa !89
  %37 = zext i8 %36 to i32
  %38 = add nsw i32 %37, %28
  %39 = trunc i32 %38 to i8
  store i8 %39, ptr %35, align 1, !tbaa !89
  %40 = load ptr, ptr %11, align 8, !tbaa !69
  %41 = getelementptr inbounds i8, ptr %40, i64 1
  %42 = load i8, ptr %41, align 1, !tbaa !89
  %43 = zext i8 %42 to i32
  %44 = load ptr, ptr %7, align 8, !tbaa !69
  %45 = load i32, ptr %12, align 4, !tbaa !49
  %46 = load i32, ptr %9, align 4, !tbaa !49
  %47 = mul nsw i32 %45, %46
  %48 = add nsw i32 %47, 1
  %49 = sext i32 %48 to i64
  %50 = getelementptr inbounds i8, ptr %44, i64 %49
  %51 = load i8, ptr %50, align 1, !tbaa !89
  %52 = zext i8 %51 to i32
  %53 = add nsw i32 %52, %43
  %54 = trunc i32 %53 to i8
  store i8 %54, ptr %50, align 1, !tbaa !89
  %55 = load ptr, ptr %11, align 8, !tbaa !69
  %56 = getelementptr inbounds i8, ptr %55, i64 2
  %57 = load i8, ptr %56, align 1, !tbaa !89
  %58 = zext i8 %57 to i32
  %59 = load ptr, ptr %7, align 8, !tbaa !69
  %60 = load i32, ptr %12, align 4, !tbaa !49
  %61 = load i32, ptr %9, align 4, !tbaa !49
  %62 = mul nsw i32 %60, %61
  %63 = add nsw i32 %62, 2
  %64 = sext i32 %63 to i64
  %65 = getelementptr inbounds i8, ptr %59, i64 %64
  %66 = load i8, ptr %65, align 1, !tbaa !89
  %67 = zext i8 %66 to i32
  %68 = add nsw i32 %67, %58
  %69 = trunc i32 %68 to i8
  store i8 %69, ptr %65, align 1, !tbaa !89
  %70 = load ptr, ptr %11, align 8, !tbaa !69
  %71 = getelementptr inbounds i8, ptr %70, i64 3
  %72 = load i8, ptr %71, align 1, !tbaa !89
  %73 = zext i8 %72 to i32
  %74 = load ptr, ptr %7, align 8, !tbaa !69
  %75 = load i32, ptr %12, align 4, !tbaa !49
  %76 = load i32, ptr %9, align 4, !tbaa !49
  %77 = mul nsw i32 %75, %76
  %78 = add nsw i32 %77, 3
  %79 = sext i32 %78 to i64
  %80 = getelementptr inbounds i8, ptr %74, i64 %79
  %81 = load i8, ptr %80, align 1, !tbaa !89
  %82 = zext i8 %81 to i32
  %83 = add nsw i32 %82, %73
  %84 = trunc i32 %83 to i8
  store i8 %84, ptr %80, align 1, !tbaa !89
  %85 = load ptr, ptr %10, align 8, !tbaa !92
  %86 = load i16, ptr %85, align 2, !tbaa !93
  %87 = sext i16 %86 to i32
  %88 = icmp ne i32 %87, 0
  br i1 %88, label %89, label %179

89:                                               ; preds = %24
  %90 = load i32, ptr %12, align 4, !tbaa !49
  %91 = load ptr, ptr %10, align 8, !tbaa !92
  %92 = load i16, ptr %91, align 2, !tbaa !93
  %93 = sext i16 %92 to i32
  %94 = icmp ne i32 %90, %93
  br i1 %94, label %95, label %179

95:                                               ; preds = %89
  call void @llvm.lifetime.start.p0(i64 4, ptr %13) #13
  %96 = load ptr, ptr %10, align 8, !tbaa !92
  %97 = load i16, ptr %96, align 2, !tbaa !93
  %98 = sext i16 %97 to i32
  store i32 %98, ptr %13, align 4, !tbaa !49
  call void @llvm.lifetime.start.p0(i64 8, ptr %14) #13
  call void @llvm.lifetime.start.p0(i64 4, ptr %15) #13
  %99 = load i32, ptr %12, align 4, !tbaa !49
  %100 = load i32, ptr %8, align 4, !tbaa !49
  %101 = sub nsw i32 %100, 1
  %102 = call i32 @av_clip_c(i32 noundef %99, i32 noundef 0, i32 noundef %101) #15
  store i32 %102, ptr %15, align 4, !tbaa !49
  %103 = load i32, ptr %13, align 4, !tbaa !49
  %104 = load i32, ptr %15, align 4, !tbaa !49
  %105 = icmp sgt i32 %103, %104
  br i1 %105, label %106, label %115

106:                                              ; preds = %95
  br label %107

107:                                              ; preds = %106
  call void @llvm.lifetime.start.p0(i64 2, ptr %16) #13
  %108 = load i32, ptr %15, align 4, !tbaa !49
  %109 = trunc i32 %108 to i16
  store i16 %109, ptr %16, align 2, !tbaa !93
  %110 = load i32, ptr %13, align 4, !tbaa !49
  store i32 %110, ptr %15, align 4, !tbaa !49
  %111 = load i16, ptr %16, align 2, !tbaa !93
  %112 = sext i16 %111 to i32
  store i32 %112, ptr %13, align 4, !tbaa !49
  call void @llvm.lifetime.end.p0(i64 2, ptr %16) #13
  br label %113

113:                                              ; preds = %107
  br label %114

114:                                              ; preds = %113
  br label %115

115:                                              ; preds = %114, %95
  %116 = load ptr, ptr %7, align 8, !tbaa !69
  %117 = load i32, ptr %13, align 4, !tbaa !49
  %118 = add nsw i32 %117, 1
  %119 = load i32, ptr %9, align 4, !tbaa !49
  %120 = mul nsw i32 %118, %119
  %121 = sext i32 %120 to i64
  %122 = getelementptr inbounds i8, ptr %116, i64 %121
  store ptr %122, ptr %14, align 8, !tbaa !69
  call void @llvm.lifetime.start.p0(i64 4, ptr %17) #13
  %123 = load i32, ptr %13, align 4, !tbaa !49
  %124 = add nsw i32 %123, 1
  store i32 %124, ptr %17, align 4, !tbaa !49
  br label %125

125:                                              ; preds = %171, %115
  %126 = load i32, ptr %17, align 4, !tbaa !49
  %127 = load i32, ptr %15, align 4, !tbaa !49
  %128 = icmp slt i32 %126, %127
  br i1 %128, label %130, label %129

129:                                              ; preds = %125
  call void @llvm.lifetime.end.p0(i64 4, ptr %17) #13
  br label %178

130:                                              ; preds = %125
  %131 = load ptr, ptr %11, align 8, !tbaa !69
  %132 = getelementptr inbounds i8, ptr %131, i64 0
  %133 = load i8, ptr %132, align 1, !tbaa !89
  %134 = zext i8 %133 to i32
  %135 = load ptr, ptr %14, align 8, !tbaa !69
  %136 = getelementptr inbounds i8, ptr %135, i64 0
  %137 = load i8, ptr %136, align 1, !tbaa !89
  %138 = zext i8 %137 to i32
  %139 = add nsw i32 %138, %134
  %140 = trunc i32 %139 to i8
  store i8 %140, ptr %136, align 1, !tbaa !89
  %141 = load ptr, ptr %11, align 8, !tbaa !69
  %142 = getelementptr inbounds i8, ptr %141, i64 1
  %143 = load i8, ptr %142, align 1, !tbaa !89
  %144 = zext i8 %143 to i32
  %145 = load ptr, ptr %14, align 8, !tbaa !69
  %146 = getelementptr inbounds i8, ptr %145, i64 1
  %147 = load i8, ptr %146, align 1, !tbaa !89
  %148 = zext i8 %147 to i32
  %149 = add nsw i32 %148, %144
  %150 = trunc i32 %149 to i8
  store i8 %150, ptr %146, align 1, !tbaa !89
  %151 = load ptr, ptr %11, align 8, !tbaa !69
  %152 = getelementptr inbounds i8, ptr %151, i64 2
  %153 = load i8, ptr %152, align 1, !tbaa !89
  %154 = zext i8 %153 to i32
  %155 = load ptr, ptr %14, align 8, !tbaa !69
  %156 = getelementptr inbounds i8, ptr %155, i64 2
  %157 = load i8, ptr %156, align 1, !tbaa !89
  %158 = zext i8 %157 to i32
  %159 = add nsw i32 %158, %154
  %160 = trunc i32 %159 to i8
  store i8 %160, ptr %156, align 1, !tbaa !89
  %161 = load ptr, ptr %11, align 8, !tbaa !69
  %162 = getelementptr inbounds i8, ptr %161, i64 3
  %163 = load i8, ptr %162, align 1, !tbaa !89
  %164 = zext i8 %163 to i32
  %165 = load ptr, ptr %14, align 8, !tbaa !69
  %166 = getelementptr inbounds i8, ptr %165, i64 3
  %167 = load i8, ptr %166, align 1, !tbaa !89
  %168 = zext i8 %167 to i32
  %169 = add nsw i32 %168, %164
  %170 = trunc i32 %169 to i8
  store i8 %170, ptr %166, align 1, !tbaa !89
  br label %171

171:                                              ; preds = %130
  %172 = load i32, ptr %17, align 4, !tbaa !49
  %173 = add nsw i32 %172, 1
  store i32 %173, ptr %17, align 4, !tbaa !49
  %174 = load i32, ptr %9, align 4, !tbaa !49
  %175 = load ptr, ptr %14, align 8, !tbaa !69
  %176 = sext i32 %174 to i64
  %177 = getelementptr inbounds i8, ptr %175, i64 %176
  store ptr %177, ptr %14, align 8, !tbaa !69
  br label %125, !llvm.loop !100

178:                                              ; preds = %129
  call void @llvm.lifetime.end.p0(i64 4, ptr %15) #13
  call void @llvm.lifetime.end.p0(i64 8, ptr %14) #13
  call void @llvm.lifetime.end.p0(i64 4, ptr %13) #13
  br label %179

179:                                              ; preds = %178, %89, %24
  br label %180

180:                                              ; preds = %179, %20, %6
  %181 = load i32, ptr %12, align 4, !tbaa !49
  %182 = trunc i32 %181 to i16
  %183 = load ptr, ptr %10, align 8, !tbaa !92
  store i16 %182, ptr %183, align 2, !tbaa !93
  ret void
}