; Function Attrs: nofree norecurse nosync nounwind memory(argmem: readwrite) uwtable
define internal void @draw_sample_p2p_rgba_scale(ptr noundef captures(none) %0, i32 noundef %1, i32 noundef %2, ptr noundef captures(none) %3, ptr noundef readonly captures(none) %4, i32 noundef %5) #7 {
  %7 = icmp sgt i32 %5, -1
  %8 = icmp slt i32 %5, %1
  %or.cond = and i1 %7, %8
  br i1 %or.cond, label %9, label %.loopexit

9:                                                ; preds = %6
  %10 = load i8, ptr %4, align 1, !tbaa !96
  %11 = mul nsw i32 %5, %2
  %12 = sext i32 %11 to i64
  %13 = getelementptr inbounds i8, ptr %0, i64 %12
  %14 = load i8, ptr %13, align 1, !tbaa !96
  %15 = add i8 %14, %10
  store i8 %15, ptr %13, align 1, !tbaa !96
  %16 = getelementptr inbounds nuw i8, ptr %4, i64 1
  %17 = load i8, ptr %16, align 1, !tbaa !96
  %18 = getelementptr i8, ptr %13, i64 1
  %19 = load i8, ptr %18, align 1, !tbaa !96
  %20 = add i8 %19, %17
  store i8 %20, ptr %18, align 1, !tbaa !96
  %21 = getelementptr inbounds nuw i8, ptr %4, i64 2
  %22 = load i8, ptr %21, align 1, !tbaa !96
  %23 = getelementptr i8, ptr %13, i64 2
  %24 = load i8, ptr %23, align 1, !tbaa !96
  %25 = add i8 %24, %22
  store i8 %25, ptr %23, align 1, !tbaa !96
  %26 = getelementptr inbounds nuw i8, ptr %4, i64 3
  %27 = load i8, ptr %26, align 1, !tbaa !96
  %28 = getelementptr i8, ptr %13, i64 3
  %29 = load i8, ptr %28, align 1, !tbaa !96
  %30 = add i8 %29, %27
  store i8 %30, ptr %28, align 1, !tbaa !96
  %31 = load i16, ptr %3, align 2, !tbaa !77
  %32 = sext i16 %31 to i32
  %.not = icmp eq i16 %31, 0
  %.not55 = icmp eq i32 %5, %32
  %or.cond56 = or i1 %.not, %.not55
  br i1 %or.cond56, label %.loopexit, label %33

33:                                               ; preds = %9
  %34 = icmp slt i32 %5, %32
  %sext = shl i32 %5, 16
  %35 = ashr exact i32 %sext, 16
  %.049 = tail call i32 @llvm.smax.i32(i32 %5, i32 %32)
  %.048 = select i1 %34, i32 %35, i32 %32
  %36 = add nsw i32 %.048, 1
  %37 = icmp slt i32 %36, %.049
  br i1 %37, label %.lver.check, label %.loopexit

.lver.check:                                      ; preds = %33
  %38 = mul nsw i32 %36, %2
  %39 = sext i32 %38 to i64
  %40 = getelementptr inbounds i8, ptr %0, i64 %39
  %41 = sext i32 %2 to i64
  %ident.check.not = icmp eq i32 %2, 1
  br i1 %ident.check.not, label %.ph, label %.ph.lver.orig

.ph.lver.orig:                                    ; preds = %.lver.check, %.ph.lver.orig
  %.058.lver.orig = phi i32 [ %57, %.ph.lver.orig ], [ %36, %.lver.check ]
  %.05057.lver.orig = phi ptr [ %58, %.ph.lver.orig ], [ %40, %.lver.check ]
  %42 = load i8, ptr %4, align 1, !tbaa !96
  %43 = load i8, ptr %.05057.lver.orig, align 1, !tbaa !96
  %44 = add i8 %43, %42
  store i8 %44, ptr %.05057.lver.orig, align 1, !tbaa !96
  %45 = load i8, ptr %16, align 1, !tbaa !96
  %46 = getelementptr inbounds nuw i8, ptr %.05057.lver.orig, i64 1
  %47 = load i8, ptr %46, align 1, !tbaa !96
  %48 = add i8 %47, %45
  store i8 %48, ptr %46, align 1, !tbaa !96
  %49 = load i8, ptr %21, align 1, !tbaa !96
  %50 = getelementptr inbounds nuw i8, ptr %.05057.lver.orig, i64 2
  %51 = load i8, ptr %50, align 1, !tbaa !96
  %52 = add i8 %51, %49
  store i8 %52, ptr %50, align 1, !tbaa !96
  %53 = load i8, ptr %26, align 1, !tbaa !96
  %54 = getelementptr inbounds nuw i8, ptr %.05057.lver.orig, i64 3
  %55 = load i8, ptr %54, align 1, !tbaa !96
  %56 = add i8 %55, %53
  store i8 %56, ptr %54, align 1, !tbaa !96
  %57 = add nsw i32 %.058.lver.orig, 1
  %58 = getelementptr inbounds i8, ptr %.05057.lver.orig, i64 %41
  %exitcond.not.lver.orig = icmp eq i32 %57, %.049
  br i1 %exitcond.not.lver.orig, label %.loopexit, label %.ph.lver.orig, !llvm.loop !104

.ph:                                              ; preds = %.lver.check
  %59 = sext i32 %.048 to i64
  %60 = getelementptr i8, ptr %0, i64 %59
  %scevgep = getelementptr i8, ptr %60, i64 3
  %load_initial = load i8, ptr %scevgep, align 1
  br label %61

61:                                               ; preds = %.ph, %61
  %store_forwarded = phi i8 [ %load_initial, %.ph ], [ %75, %61 ]
  %.058 = phi i32 [ %36, %.ph ], [ %76, %61 ]
  %.05057 = phi ptr [ %40, %.ph ], [ %77, %61 ]
  %62 = load i8, ptr %4, align 1, !tbaa !96
  %63 = load i8, ptr %.05057, align 1, !tbaa !96
  %64 = add i8 %63, %62
  store i8 %64, ptr %.05057, align 1, !tbaa !96
  %65 = load i8, ptr %16, align 1, !tbaa !96
  %66 = getelementptr inbounds nuw i8, ptr %.05057, i64 1
  %67 = load i8, ptr %66, align 1, !tbaa !96
  %68 = add i8 %67, %65
  store i8 %68, ptr %66, align 1, !tbaa !96
  %69 = load i8, ptr %21, align 1, !tbaa !96
  %70 = getelementptr inbounds nuw i8, ptr %.05057, i64 2
  %71 = add i8 %store_forwarded, %69
  store i8 %71, ptr %70, align 1, !tbaa !96
  %72 = load i8, ptr %26, align 1, !tbaa !96
  %73 = getelementptr inbounds nuw i8, ptr %.05057, i64 3
  %74 = load i8, ptr %73, align 1, !tbaa !96
  %75 = add i8 %74, %72
  store i8 %75, ptr %73, align 1, !tbaa !96
  %76 = add nsw i32 %.058, 1
  %77 = getelementptr inbounds nuw i8, ptr %.05057, i64 %41
  %exitcond.not = icmp eq i32 %76, %.049
  br i1 %exitcond.not, label %.loopexit, label %61, !llvm.loop !104

.loopexit:                                        ; preds = %.ph.lver.orig, %61, %33, %9, %6
  %78 = trunc i32 %5 to i16
  store i16 %78, ptr %3, align 2, !tbaa !77
  ret void
}